
test_arithmetic.elf:     file format elf32-littleriscv


Disassembly of section .init:

00000000 <_start>:
   0:	00000093          	li	x1,0
   4:	00000113          	li	x2,0
   8:	00000193          	li	x3,0
   c:	00000213          	li	x4,0
  10:	00000293          	li	x5,0
  14:	00000313          	li	x6,0
  18:	00000393          	li	x7,0
  1c:	00000413          	li	x8,0
  20:	00000493          	li	x9,0
  24:	00000513          	li	x10,0
  28:	00000593          	li	x11,0
  2c:	00000613          	li	x12,0
  30:	00000693          	li	x13,0
  34:	00000713          	li	x14,0
  38:	00000793          	li	x15,0
  3c:	00000813          	li	x16,0
  40:	00000893          	li	x17,0
  44:	00000913          	li	x18,0
  48:	00000993          	li	x19,0
  4c:	00000a13          	li	x20,0
  50:	00000a93          	li	x21,0
  54:	00000b13          	li	x22,0
  58:	00000b93          	li	x23,0
  5c:	00000c13          	li	x24,0
  60:	00000c93          	li	x25,0
  64:	00000d13          	li	x26,0
  68:	00000d93          	li	x27,0
  6c:	00000e13          	li	x28,0
  70:	00000e93          	li	x29,0
  74:	00000f13          	li	x30,0
  78:	00000f93          	li	x31,0
  7c:	00000197          	auipc	x3,0x0
  80:	78418193          	add	x3,x3,1924 # 800 <_global_pointer>
  84:	00001117          	auipc	x2,0x1
  88:	f7c10113          	add	x2,x2,-132 # 1000 <_stack_pointer>
  8c:	0740006f          	j	100 <main>

Disassembly of section .text:

00000100 <main>:
 100:	ff010113          	add	x2,x2,-16
 104:	00812623          	sw	x8,12(x2)
 108:	01010413          	add	x8,x2,16
 10c:	40002203          	lw	x4,1024(x0) # 400 <test_data>
 110:	40801283          	lh	x5,1032(x0) # 408 <test_data+0x8>
 114:	40805103          	lhu	x2,1032(x0) # 408 <test_data+0x8>
 118:	40804183          	lbu	x3,1032(x0) # 408 <test_data+0x8>
 11c:	41000303          	lb	x6,1040(x0) # 410 <test_data+0x10>
 120:	004283b3          	add	x7,x5,x4
 124:	40428433          	sub	x8,x5,x4
 128:	0042c4b3          	xor	x9,x5,x4
 12c:	0042e533          	or	x10,x5,x4
 130:	0042f5b3          	and	x11,x5,x4
 134:	00621633          	sll	x12,x4,x6
 138:	0062d6b3          	srl	x13,x5,x6
 13c:	4062d733          	sra	x14,x5,x6
 140:	0062a7b3          	slt	x15,x5,x6
 144:	00e28393          	add	x7,x5,14
 148:	ffc2c413          	xor	x8,x5,-4
 14c:	00736493          	or	x9,x6,7
 150:	00127513          	and	x10,x4,1
 154:	00321593          	sll	x11,x4,0x3
 158:	0042d613          	srl	x12,x5,0x4
 15c:	4042d693          	sra	x13,x5,0x4
 160:	0032a713          	slti	x14,x5,3
 164:	0032b793          	sltiu	x15,x5,3
 168:	00007837          	lui	x16,0x7
 16c:	00009897          	auipc	x17,0x9
 170:	402000a3          	sb	x2,1025(x0) # 401 <test_data+0x1>
 174:	402016a3          	sh	x2,1037(x0) # 40d <test_data+0xd>
 178:	40602e23          	sw	x6,1052(x0) # 41c <test_data+0x1c>
 17c:	40002083          	lw	x1,1024(x0) # 400 <test_data>
 180:	40c02103          	lw	x2,1036(x0) # 40c <test_data+0xc>
 184:	41c02183          	lw	x3,1052(x0) # 41c <test_data+0x1c>
 188:	00000793          	li	x15,0
 18c:	00078513          	mv	x10,x15
 190:	00c12403          	lw	x8,12(x2)
 194:	01010113          	add	x2,x2,16
 198:	00008067          	ret
