
test_branch.elf:     file format elf32-littleriscv


Disassembly of section .init:

00000000 <_start>:
   0:	00000013          	nop
   4:	00000093          	li	x1,0
   8:	00000113          	li	x2,0
   c:	00000193          	li	x3,0
  10:	00000213          	li	x4,0
  14:	00000293          	li	x5,0
  18:	00000313          	li	x6,0
  1c:	00000393          	li	x7,0
  20:	00000413          	li	x8,0
  24:	00000493          	li	x9,0
  28:	00000513          	li	x10,0
  2c:	00000593          	li	x11,0
  30:	00000613          	li	x12,0
  34:	00000693          	li	x13,0
  38:	00000713          	li	x14,0
  3c:	00000793          	li	x15,0
  40:	00000813          	li	x16,0
  44:	00000893          	li	x17,0
  48:	00000913          	li	x18,0
  4c:	00000993          	li	x19,0
  50:	00000a13          	li	x20,0
  54:	00000a93          	li	x21,0
  58:	00000b13          	li	x22,0
  5c:	00000b93          	li	x23,0
  60:	00000c13          	li	x24,0
  64:	00000c93          	li	x25,0
  68:	00000d13          	li	x26,0
  6c:	00000d93          	li	x27,0
  70:	00000e13          	li	x28,0
  74:	00000e93          	li	x29,0
  78:	00000f13          	li	x30,0
  7c:	00000f93          	li	x31,0
  80:	00000197          	auipc	x3,0x0
  84:	78018193          	add	x3,x3,1920 # 800 <_global_pointer>
  88:	00001117          	auipc	x2,0x1
  8c:	f7810113          	add	x2,x2,-136 # 1000 <_stack_pointer>
  90:	0700006f          	j	100 <main>

Disassembly of section .text:

00000100 <main>:
 100:	000100b7          	lui	x1,0x10
 104:	a0508093          	add	x1,x1,-1531 # fa05 <_stack_pointer+0xea05>
 108:	00010137          	lui	x2,0x10
 10c:	fff10113          	add	x2,x2,-1 # ffff <_stack_pointer+0xefff>
 110:	123501b7          	lui	x3,0x12350
 114:	ffa18193          	add	x3,x3,-6 # 1234fffa <_stack_pointer+0x1234effa>
 118:	01000237          	lui	x4,0x1000
 11c:	a0320213          	add	x4,x4,-1533 # fffa03 <_stack_pointer+0xffea03>
 120:	f23502b7          	lui	x5,0xf2350
 124:	f0328293          	add	x5,x5,-253 # f234ff03 <_stack_pointer+0xf234ef03>
 128:	00500313          	li	x6,5
 12c:	0f300393          	li	x7,243
 130:	00300413          	li	x8,3
 134:	40102023          	sw	x1,1024(x0) # 400 <jalr+0x278>
 138:	40202223          	sw	x2,1028(x0) # 404 <jalr+0x27c>
 13c:	40302423          	sw	x3,1032(x0) # 408 <jalr+0x280>
 140:	40402623          	sw	x4,1036(x0) # 40c <jalr+0x284>
 144:	40502823          	sw	x5,1040(x0) # 410 <jalr+0x288>
 148:	40602a23          	sw	x6,1044(x0) # 414 <jalr+0x28c>
 14c:	40702c23          	sw	x7,1048(x0) # 418 <jalr+0x290>
 150:	40802e23          	sw	x8,1052(x0) # 41c <jalr+0x294>

00000154 <jal>:
 154:	0040096f          	jal	x18,158 <beq>

00000158 <beq>:
 158:	00310463          	beq	x2,x3,160 <bne>
 15c:	00210263          	beq	x2,x2,160 <bne>

00000160 <bne>:
 160:	00211463          	bne	x2,x2,168 <blt>
 164:	00311263          	bne	x2,x3,168 <blt>

00000168 <blt>:
 168:	00534463          	blt	x6,x5,170 <bge>
 16c:	0062c263          	blt	x5,x6,170 <bge>

00000170 <bge>:
 170:	0042d463          	bge	x5,x4,178 <bltu>
 174:	00525263          	bge	x4,x5,178 <bltu>

00000178 <bltu>:
 178:	0062e463          	bltu	x5,x6,180 <bgeu>
 17c:	00536263          	bltu	x6,x5,180 <bgeu>

00000180 <bgeu>:
 180:	00527463          	bgeu	x4,x5,188 <jalr>
 184:	0042f263          	bgeu	x5,x4,188 <jalr>

00000188 <jalr>:
 188:	00000a67          	jalr	x20,x0 # 0 <_start>
