
test.elf:     file format elf32-littleriscv


Disassembly of section .init:

00000000 <_start>:
   0:	00000093          	li	x1,0
   4:	00000113          	li	x2,0
   8:	00000193          	li	x3,0
   c:	00000213          	li	x4,0
  10:	00000293          	li	x5,0
  14:	00000313          	li	x6,0
  18:	00000393          	li	x7,0
  1c:	00000413          	li	x8,0
  20:	00000493          	li	x9,0
  24:	00000513          	li	x10,0
  28:	00000593          	li	x11,0
  2c:	00000613          	li	x12,0
  30:	00000693          	li	x13,0
  34:	00000713          	li	x14,0
  38:	00000793          	li	x15,0
  3c:	00000813          	li	x16,0
  40:	00000893          	li	x17,0
  44:	00000913          	li	x18,0
  48:	00000993          	li	x19,0
  4c:	00000a13          	li	x20,0
  50:	00000a93          	li	x21,0
  54:	00000b13          	li	x22,0
  58:	00000b93          	li	x23,0
  5c:	00000c13          	li	x24,0
  60:	00000c93          	li	x25,0
  64:	00000d13          	li	x26,0
  68:	00000d93          	li	x27,0
  6c:	00000e13          	li	x28,0
  70:	00000e93          	li	x29,0
  74:	00000f13          	li	x30,0
  78:	00000f93          	li	x31,0
  7c:	00000197          	auipc	x3,0x0
  80:	78418193          	add	x3,x3,1924 # 800 <_global_pointer>
  84:	00001117          	auipc	x2,0x1
  88:	f7c10113          	add	x2,x2,-132 # 1000 <_stack_pointer>
  8c:	0740006f          	j	100 <main>

Disassembly of section .text:

00000100 <main>:
 100:	001215f3          	csrrw	x11,fflags,x4
 104:	00229673          	csrrw	x12,frm,x5
 108:	003316f3          	csrrw	x13,fcsr,x6
 10c:	00121773          	csrrw	x14,fflags,x4
 110:	002717f3          	csrrw	x15,frm,x14
 114:	00371873          	csrrw	x16,fcsr,x14
 118:	00122873          	csrrs	x16,fflags,x4
 11c:	00282773          	csrrs	x14,frm,x16
 120:	003727f3          	csrrs	x15,fcsr,x14
 124:	00123773          	csrrc	x14,fflags,x4
 128:	002737f3          	csrrc	x15,frm,x14
 12c:	00303873          	csrrc	x16,fcsr,x0
 130:	001ed773          	csrrw	x14,fflags,29
 134:	002557f3          	csrrw	x15,frm,10
 138:	003a5873          	csrrw	x16,fcsr,20
 13c:	001ee873          	csrrs	x16,fflags,29
 140:	00276773          	csrrs	x14,frm,14
 144:	0036e7f3          	csrrs	x15,fcsr,13
 148:	0016f773          	csrrc	x14,fflags,13
 14c:	002ef7f3          	csrrc	x15,frm,29
 150:	0033f873          	csrrc	x16,fcsr,7
